target datalayout = "e-m:e-p270:32:32-p271:32:32-p272:64:64-i64:64-i128:128-f80:128-n8:16:32:64-S128"
target triple = "x86_64-pc-linux-gnu"

; Function Attrs: inlinehint nounwind uwtable
define internal i32 @Kit_TruthWordNum(i32 noundef %0) #2 {
  %2 = alloca i32, align 4
  store i32 %0, ptr %2, align 4, !tbaa !8
  %3 = load i32, ptr %2, align 4, !tbaa !8
  %4 = icmp sle i32 %3, 5
  br i1 %4, label %5, label %6

5:                                                ; preds = %1
  br label %10

6:                                                ; preds = %1
  %7 = load i32, ptr %2, align 4, !tbaa !8
  %8 = sub nsw i32 %7, 5
  %9 = shl i32 1, %8
  br label %10

10:                                               ; preds = %6, %5
  %11 = phi i32 [ 1, %5 ], [ %9, %6 ]
  ret i32 %11
}

; Function Attrs: nounwind uwtable
define void @Kit_TruthMuxVarPhase(ptr noundef %0, ptr noundef %1, ptr noundef %2, i32 noundef %3, i32 noundef %4, i32 noundef %5) #0 {
  %7 = alloca ptr, align 8
  %8 = alloca ptr, align 8
  %9 = alloca ptr, align 8
  %10 = alloca i32, align 4
  %11 = alloca i32, align 4
  %12 = alloca i32, align 4
  %13 = alloca i32, align 4
  %14 = alloca i32, align 4
  %15 = alloca i32, align 4
  %16 = alloca i32, align 4
  %17 = alloca i32, align 4
  store ptr %0, ptr %7, align 8, !tbaa !3
  store ptr %1, ptr %8, align 8, !tbaa !3
  store ptr %2, ptr %9, align 8, !tbaa !3
  store i32 %3, ptr %10, align 4, !tbaa !8
  store i32 %4, ptr %11, align 4, !tbaa !8
  store i32 %5, ptr %12, align 4, !tbaa !8
  call void @llvm.lifetime.start.p0(i64 4, ptr %13) #8
  %18 = load i32, ptr %10, align 4, !tbaa !8
  %19 = call i32 @Kit_TruthWordNum(i32 noundef %18)
  store i32 %19, ptr %13, align 4, !tbaa !8
  call void @llvm.lifetime.start.p0(i64 4, ptr %14) #8
  call void @llvm.lifetime.start.p0(i64 4, ptr %15) #8
  call void @llvm.lifetime.start.p0(i64 4, ptr %16) #8
  %20 = load i32, ptr %12, align 4, !tbaa !8
  %21 = icmp eq i32 %20, 0
  br i1 %21, label %22, label %28

22:                                               ; preds = %6
  %23 = load ptr, ptr %7, align 8, !tbaa !3
  %24 = load ptr, ptr %8, align 8, !tbaa !3
  %25 = load ptr, ptr %9, align 8, !tbaa !3
  %26 = load i32, ptr %10, align 4, !tbaa !8
  %27 = load i32, ptr %11, align 4, !tbaa !8
  call void @Kit_TruthMuxVar(ptr noundef %23, ptr noundef %24, ptr noundef %25, i32 noundef %26, i32 noundef %27)
  store i32 1, ptr %17, align 4
  br label %232

28:                                               ; preds = %6
  %29 = load i32, ptr %11, align 4, !tbaa !8
  switch i32 %29, label %170 [
    i32 0, label %30
    i32 1, label %58
    i32 2, label %86
    i32 3, label %114
    i32 4, label %142
  ]

30:                                               ; preds = %28
  store i32 0, ptr %14, align 4, !tbaa !8
  br label %31

31:                                               ; preds = %54, %30
  %32 = load i32, ptr %14, align 4, !tbaa !8
  %33 = load i32, ptr %13, align 4, !tbaa !8
  %34 = icmp slt i32 %32, %33
  br i1 %34, label %35, label %57

35:                                               ; preds = %31
  %36 = load ptr, ptr %8, align 8, !tbaa !3
  %37 = load i32, ptr %14, align 4, !tbaa !8
  %38 = sext i32 %37 to i64
  %39 = getelementptr inbounds i32, ptr %36, i64 %38
  %40 = load i32, ptr %39, align 4, !tbaa !8
  %41 = xor i32 %40, -1
  %42 = and i32 %41, 1431655765
  %43 = load ptr, ptr %9, align 8, !tbaa !3
  %44 = load i32, ptr %14, align 4, !tbaa !8
  %45 = sext i32 %44 to i64
  %46 = getelementptr inbounds i32, ptr %43, i64 %45
  %47 = load i32, ptr %46, align 4, !tbaa !8
  %48 = and i32 %47, -1431655766
  %49 = or i32 %42, %48
  %50 = load ptr, ptr %7, align 8, !tbaa !3
  %51 = load i32, ptr %14, align 4, !tbaa !8
  %52 = sext i32 %51 to i64
  %53 = getelementptr inbounds i32, ptr %50, i64 %52
  store i32 %49, ptr %53, align 4, !tbaa !8
  br label %54

54:                                               ; preds = %35
  %55 = load i32, ptr %14, align 4, !tbaa !8
  %56 = add nsw i32 %55, 1
  store i32 %56, ptr %14, align 4, !tbaa !8
  br label %31, !llvm.loop !141

57:                                               ; preds = %31
  store i32 1, ptr %17, align 4
  br label %232

58:                                               ; preds = %28
  store i32 0, ptr %14, align 4, !tbaa !8
  br label %59

59:                                               ; preds = %82, %58
  %60 = load i32, ptr %14, align 4, !tbaa !8
  %61 = load i32, ptr %13, align 4, !tbaa !8
  %62 = icmp slt i32 %60, %61
  br i1 %62, label %63, label %85

63:                                               ; preds = %59
  %64 = load ptr, ptr %8, align 8, !tbaa !3
  %65 = load i32, ptr %14, align 4, !tbaa !8
  %66 = sext i32 %65 to i64
  %67 = getelementptr inbounds i32, ptr %64, i64 %66
  %68 = load i32, ptr %67, align 4, !tbaa !8
  %69 = xor i32 %68, -1
  %70 = and i32 %69, 858993459
  %71 = load ptr, ptr %9, align 8, !tbaa !3
  %72 = load i32, ptr %14, align 4, !tbaa !8
  %73 = sext i32 %72 to i64
  %74 = getelementptr inbounds i32, ptr %71, i64 %73
  %75 = load i32, ptr %74, align 4, !tbaa !8
  %76 = and i32 %75, -858993460
  %77 = or i32 %70, %76
  %78 = load ptr, ptr %7, align 8, !tbaa !3
  %79 = load i32, ptr %14, align 4, !tbaa !8
  %80 = sext i32 %79 to i64
  %81 = getelementptr inbounds i32, ptr %78, i64 %80
  store i32 %77, ptr %81, align 4, !tbaa !8
  br label %82

82:                                               ; preds = %63
  %83 = load i32, ptr %14, align 4, !tbaa !8
  %84 = add nsw i32 %83, 1
  store i32 %84, ptr %14, align 4, !tbaa !8
  br label %59, !llvm.loop !142

85:                                               ; preds = %59
  store i32 1, ptr %17, align 4
  br label %232

86:                                               ; preds = %28
  store i32 0, ptr %14, align 4, !tbaa !8
  br label %87

87:                                               ; preds = %110, %86
  %88 = load i32, ptr %14, align 4, !tbaa !8
  %89 = load i32, ptr %13, align 4, !tbaa !8
  %90 = icmp slt i32 %88, %89
  br i1 %90, label %91, label %113

91:                                               ; preds = %87
  %92 = load ptr, ptr %8, align 8, !tbaa !3
  %93 = load i32, ptr %14, align 4, !tbaa !8
  %94 = sext i32 %93 to i64
  %95 = getelementptr inbounds i32, ptr %92, i64 %94
  %96 = load i32, ptr %95, align 4, !tbaa !8
  %97 = xor i32 %96, -1
  %98 = and i32 %97, 252645135
  %99 = load ptr, ptr %9, align 8, !tbaa !3
  %100 = load i32, ptr %14, align 4, !tbaa !8
  %101 = sext i32 %100 to i64
  %102 = getelementptr inbounds i32, ptr %99, i64 %101
  %103 = load i32, ptr %102, align 4, !tbaa !8
  %104 = and i32 %103, -252645136
  %105 = or i32 %98, %104
  %106 = load ptr, ptr %7, align 8, !tbaa !3
  %107 = load i32, ptr %14, align 4, !tbaa !8
  %108 = sext i32 %107 to i64
  %109 = getelementptr inbounds i32, ptr %106, i64 %108
  store i32 %105, ptr %109, align 4, !tbaa !8
  br label %110

110:                                              ; preds = %91
  %111 = load i32, ptr %14, align 4, !tbaa !8
  %112 = add nsw i32 %111, 1
  store i32 %112, ptr %14, align 4, !tbaa !8
  br label %87, !llvm.loop !143

113:                                              ; preds = %87
  store i32 1, ptr %17, align 4
  br label %232

114:                                              ; preds = %28
  store i32 0, ptr %14, align 4, !tbaa !8
  br label %115

115:                                              ; preds = %138, %114
  %116 = load i32, ptr %14, align 4, !tbaa !8
  %117 = load i32, ptr %13, align 4, !tbaa !8
  %118 = icmp slt i32 %116, %117
  br i1 %118, label %119, label %141

119:                                              ; preds = %115
  %120 = load ptr, ptr %8, align 8, !tbaa !3
  %121 = load i32, ptr %14, align 4, !tbaa !8
  %122 = sext i32 %121 to i64
  %123 = getelementptr inbounds i32, ptr %120, i64 %122
  %124 = load i32, ptr %123, align 4, !tbaa !8
  %125 = xor i32 %124, -1
  %126 = and i32 %125, 16711935
  %127 = load ptr, ptr %9, align 8, !tbaa !3
  %128 = load i32, ptr %14, align 4, !tbaa !8
  %129 = sext i32 %128 to i64
  %130 = getelementptr inbounds i32, ptr %127, i64 %129
  %131 = load i32, ptr %130, align 4, !tbaa !8
  %132 = and i32 %131, -16711936
  %133 = or i32 %126, %132
  %134 = load ptr, ptr %7, align 8, !tbaa !3
  %135 = load i32, ptr %14, align 4, !tbaa !8
  %136 = sext i32 %135 to i64
  %137 = getelementptr inbounds i32, ptr %134, i64 %136
  store i32 %133, ptr %137, align 4, !tbaa !8
  br label %138

138:                                              ; preds = %119
  %139 = load i32, ptr %14, align 4, !tbaa !8
  %140 = add nsw i32 %139, 1
  store i32 %140, ptr %14, align 4, !tbaa !8
  br label %115, !llvm.loop !144

141:                                              ; preds = %115
  store i32 1, ptr %17, align 4
  br label %232

142:                                              ; preds = %28
  store i32 0, ptr %14, align 4, !tbaa !8
  br label %143

143:                                              ; preds = %166, %142
  %144 = load i32, ptr %14, align 4, !tbaa !8
  %145 = load i32, ptr %13, align 4, !tbaa !8
  %146 = icmp slt i32 %144, %145
  br i1 %146, label %147, label %169

147:                                              ; preds = %143
  %148 = load ptr, ptr %8, align 8, !tbaa !3
  %149 = load i32, ptr %14, align 4, !tbaa !8
  %150 = sext i32 %149 to i64
  %151 = getelementptr inbounds i32, ptr %148, i64 %150
  %152 = load i32, ptr %151, align 4, !tbaa !8
  %153 = xor i32 %152, -1
  %154 = and i32 %153, 65535
  %155 = load ptr, ptr %9, align 8, !tbaa !3
  %156 = load i32, ptr %14, align 4, !tbaa !8
  %157 = sext i32 %156 to i64
  %158 = getelementptr inbounds i32, ptr %155, i64 %157
  %159 = load i32, ptr %158, align 4, !tbaa !8
  %160 = and i32 %159, -65536
  %161 = or i32 %154, %160
  %162 = load ptr, ptr %7, align 8, !tbaa !3
  %163 = load i32, ptr %14, align 4, !tbaa !8
  %164 = sext i32 %163 to i64
  %165 = getelementptr inbounds i32, ptr %162, i64 %164
  store i32 %161, ptr %165, align 4, !tbaa !8
  br label %166

166:                                              ; preds = %147
  %167 = load i32, ptr %14, align 4, !tbaa !8
  %168 = add nsw i32 %167, 1
  store i32 %168, ptr %14, align 4, !tbaa !8
  br label %143, !llvm.loop !145

169:                                              ; preds = %143
  store i32 1, ptr %17, align 4
  br label %232

170:                                              ; preds = %28
  %171 = load i32, ptr %11, align 4, !tbaa !8
  %172 = sub nsw i32 %171, 5
  %173 = shl i32 1, %172
  store i32 %173, ptr %16, align 4, !tbaa !8
  store i32 0, ptr %15, align 4, !tbaa !8
  br label %174

174:                                              ; preds = %226, %170
  %175 = load i32, ptr %15, align 4, !tbaa !8
  %176 = load i32, ptr %13, align 4, !tbaa !8
  %177 = icmp slt i32 %175, %176
  br i1 %177, label %178, label %231

178:                                              ; preds = %174
  store i32 0, ptr %14, align 4, !tbaa !8
  br label %179

179:                                              ; preds = %207, %178
  %180 = load i32, ptr %14, align 4, !tbaa !8
  %181 = load i32, ptr %16, align 4, !tbaa !8
  %182 = icmp slt i32 %180, %181
  br i1 %182, label %183, label %210

183:                                              ; preds = %179
  %184 = load ptr, ptr %8, align 8, !tbaa !3
  %185 = load i32, ptr %14, align 4, !tbaa !8
  %186 = sext i32 %185 to i64
  %187 = getelementptr inbounds i32, ptr %184, i64 %186
  %188 = load i32, ptr %187, align 4, !tbaa !8
  %189 = xor i32 %188, -1
  %190 = load ptr, ptr %7, align 8, !tbaa !3
  %191 = load i32, ptr %14, align 4, !tbaa !8
  %192 = sext i32 %191 to i64
  %193 = getelementptr inbounds i32, ptr %190, i64 %192
  store i32 %189, ptr %193, align 4, !tbaa !8
  %194 = load ptr, ptr %9, align 8, !tbaa !3
  %195 = load i32, ptr %16, align 4, !tbaa !8
  %196 = load i32, ptr %14, align 4, !tbaa !8
  %197 = add nsw i32 %195, %196
  %198 = sext i32 %197 to i64
  %199 = getelementptr inbounds i32, ptr %194, i64 %198
  %200 = load i32, ptr %199, align 4, !tbaa !8
  %201 = load ptr, ptr %7, align 8, !tbaa !3
  %202 = load i32, ptr %16, align 4, !tbaa !8
  %203 = load i32, ptr %14, align 4, !tbaa !8
  %204 = add nsw i32 %202, %203
  %205 = sext i32 %204 to i64
  %206 = getelementptr inbounds i32, ptr %201, i64 %205
  store i32 %200, ptr %206, align 4, !tbaa !8
  br label %207

207:                                              ; preds = %183
  %208 = load i32, ptr %14, align 4, !tbaa !8
  %209 = add nsw i32 %208, 1
  store i32 %209, ptr %14, align 4, !tbaa !8
  br label %179, !llvm.loop !146

210:                                              ; preds = %179
  %211 = load i32, ptr %16, align 4, !tbaa !8
  %212 = mul nsw i32 2, %211
  %213 = load ptr, ptr %7, align 8, !tbaa !3
  %214 = sext i32 %212 to i64
  %215 = getelementptr inbounds i32, ptr %213, i64 %214
  store ptr %215, ptr %7, align 8, !tbaa !3
  %216 = load i32, ptr %16, align 4, !tbaa !8
  %217 = mul nsw i32 2, %216
  %218 = load ptr, ptr %8, align 8, !tbaa !3
  %219 = sext i32 %217 to i64
  %220 = getelementptr inbounds i32, ptr %218, i64 %219
  store ptr %220, ptr %8, align 8, !tbaa !3
  %221 = load i32, ptr %16, align 4, !tbaa !8
  %222 = mul nsw i32 2, %221
  %223 = load ptr, ptr %9, align 8, !tbaa !3
  %224 = sext i32 %222 to i64
  %225 = getelementptr inbounds i32, ptr %223, i64 %224
  store ptr %225, ptr %9, align 8, !tbaa !3
  br label %226

226:                                              ; preds = %210
  %227 = load i32, ptr %16, align 4, !tbaa !8
  %228 = mul nsw i32 2, %227
  %229 = load i32, ptr %15, align 4, !tbaa !8
  %230 = add nsw i32 %229, %228
  store i32 %230, ptr %15, align 4, !tbaa !8
  br label %174, !llvm.loop !147

231:                                              ; preds = %174
  store i32 1, ptr %17, align 4
  br label %232

232:                                              ; preds = %231, %169, %141, %113, %85, %57, %22
  call void @llvm.lifetime.end.p0(i64 4, ptr %16) #8
  call void @llvm.lifetime.end.p0(i64 4, ptr %15) #8
  call void @llvm.lifetime.end.p0(i64 4, ptr %14) #8
  call void @llvm.lifetime.end.p0(i64 4, ptr %13) #8
  ret void
}