; Function Attrs: nofree norecurse nosync nounwind memory(argmem: readwrite) uwtable
define void @Kit_TruthMuxVarPhase(ptr noundef writeonly captures(none) %0, ptr noundef readonly captures(none) %1, ptr noundef readonly captures(none) %2, i32 noundef %3, i32 noundef %4, i32 noundef %5) local_unnamed_addr #0 {
  %7 = icmp slt i32 %3, 6
  %8 = add nsw i32 %3, -5
  %9 = shl nuw i32 1, %8
  %10 = select i1 %7, i32 1, i32 %9
  %11 = icmp eq i32 %5, 0
  br i1 %11, label %12, label %13

12:                                               ; preds = %6
  tail call void @Kit_TruthMuxVar(ptr noundef %0, ptr noundef %1, ptr noundef %2, i32 noundef %3, i32 noundef %4)
  br label %.loopexit

13:                                               ; preds = %6
  switch i32 %4, label %64 [
    i32 0, label %.preheader82
    i32 1, label %.preheader84
    i32 2, label %.preheader86
    i32 3, label %.preheader88
    i32 4, label %.preheader90
  ]

.preheader90:                                     ; preds = %13
  %14 = icmp sgt i32 %10, 0
  br i1 %14, label %.lr.ph.preheader, label %.loopexit

.lr.ph.preheader:                                 ; preds = %.preheader90
  %wide.trip.count = zext nneg i32 %10 to i64
  br label %.lr.ph

.preheader88:                                     ; preds = %13
  %15 = icmp sgt i32 %10, 0
  br i1 %15, label %.lr.ph94.preheader, label %.loopexit

.lr.ph94.preheader:                               ; preds = %.preheader88
  %wide.trip.count117 = zext nneg i32 %10 to i64
  br label %.lr.ph94

.preheader86:                                     ; preds = %13
  %16 = icmp sgt i32 %10, 0
  br i1 %16, label %.lr.ph96.preheader, label %.loopexit

.lr.ph96.preheader:                               ; preds = %.preheader86
  %wide.trip.count122 = zext nneg i32 %10 to i64
  br label %.lr.ph96

.preheader84:                                     ; preds = %13
  %17 = icmp sgt i32 %10, 0
  br i1 %17, label %.lr.ph98.preheader, label %.loopexit

.lr.ph98.preheader:                               ; preds = %.preheader84
  %wide.trip.count127 = zext nneg i32 %10 to i64
  br label %.lr.ph98

.preheader82:                                     ; preds = %13
  %18 = icmp sgt i32 %10, 0
  br i1 %18, label %.lr.ph100.preheader, label %.loopexit

.lr.ph100.preheader:                              ; preds = %.preheader82
  %wide.trip.count132 = zext nneg i32 %10 to i64
  br label %.lr.ph100

.lr.ph100:                                        ; preds = %.lr.ph100.preheader, %.lr.ph100
  %indvars.iv129 = phi i64 [ 0, %.lr.ph100.preheader ], [ %indvars.iv.next130, %.lr.ph100 ]
  %19 = getelementptr inbounds nuw i32, ptr %1, i64 %indvars.iv129
  %20 = load i32, ptr %19, align 4, !tbaa !3
  %21 = and i32 %20, 1431655765
  %22 = getelementptr inbounds nuw i32, ptr %2, i64 %indvars.iv129
  %23 = load i32, ptr %22, align 4, !tbaa !3
  %24 = and i32 %23, -1431655766
  %25 = or disjoint i32 %24, %21
  %26 = xor i32 %25, 1431655765
  %27 = getelementptr inbounds nuw i32, ptr %0, i64 %indvars.iv129
  store i32 %26, ptr %27, align 4, !tbaa !3
  %indvars.iv.next130 = add nuw nsw i64 %indvars.iv129, 1
  %exitcond133.not = icmp eq i64 %indvars.iv.next130, %wide.trip.count132
  br i1 %exitcond133.not, label %.loopexit, label %.lr.ph100, !llvm.loop !135

.lr.ph98:                                         ; preds = %.lr.ph98.preheader, %.lr.ph98
  %indvars.iv124 = phi i64 [ 0, %.lr.ph98.preheader ], [ %indvars.iv.next125, %.lr.ph98 ]
  %28 = getelementptr inbounds nuw i32, ptr %1, i64 %indvars.iv124
  %29 = load i32, ptr %28, align 4, !tbaa !3
  %30 = and i32 %29, 858993459
  %31 = getelementptr inbounds nuw i32, ptr %2, i64 %indvars.iv124
  %32 = load i32, ptr %31, align 4, !tbaa !3
  %33 = and i32 %32, -858993460
  %34 = or disjoint i32 %33, %30
  %35 = xor i32 %34, 858993459
  %36 = getelementptr inbounds nuw i32, ptr %0, i64 %indvars.iv124
  store i32 %35, ptr %36, align 4, !tbaa !3
  %indvars.iv.next125 = add nuw nsw i64 %indvars.iv124, 1
  %exitcond128.not = icmp eq i64 %indvars.iv.next125, %wide.trip.count127
  br i1 %exitcond128.not, label %.loopexit, label %.lr.ph98, !llvm.loop !136

.lr.ph96:                                         ; preds = %.lr.ph96.preheader, %.lr.ph96
  %indvars.iv119 = phi i64 [ 0, %.lr.ph96.preheader ], [ %indvars.iv.next120, %.lr.ph96 ]
  %37 = getelementptr inbounds nuw i32, ptr %1, i64 %indvars.iv119
  %38 = load i32, ptr %37, align 4, !tbaa !3
  %39 = and i32 %38, 252645135
  %40 = getelementptr inbounds nuw i32, ptr %2, i64 %indvars.iv119
  %41 = load i32, ptr %40, align 4, !tbaa !3
  %42 = and i32 %41, -252645136
  %43 = or disjoint i32 %42, %39
  %44 = xor i32 %43, 252645135
  %45 = getelementptr inbounds nuw i32, ptr %0, i64 %indvars.iv119
  store i32 %44, ptr %45, align 4, !tbaa !3
  %indvars.iv.next120 = add nuw nsw i64 %indvars.iv119, 1
  %exitcond123.not = icmp eq i64 %indvars.iv.next120, %wide.trip.count122
  br i1 %exitcond123.not, label %.loopexit, label %.lr.ph96, !llvm.loop !137

.lr.ph94:                                         ; preds = %.lr.ph94.preheader, %.lr.ph94
  %indvars.iv114 = phi i64 [ 0, %.lr.ph94.preheader ], [ %indvars.iv.next115, %.lr.ph94 ]
  %46 = getelementptr inbounds nuw i32, ptr %1, i64 %indvars.iv114
  %47 = load i32, ptr %46, align 4, !tbaa !3
  %48 = and i32 %47, 16711935
  %49 = getelementptr inbounds nuw i32, ptr %2, i64 %indvars.iv114
  %50 = load i32, ptr %49, align 4, !tbaa !3
  %51 = and i32 %50, -16711936
  %52 = or disjoint i32 %51, %48
  %53 = xor i32 %52, 16711935
  %54 = getelementptr inbounds nuw i32, ptr %0, i64 %indvars.iv114
  store i32 %53, ptr %54, align 4, !tbaa !3
  %indvars.iv.next115 = add nuw nsw i64 %indvars.iv114, 1
  %exitcond118.not = icmp eq i64 %indvars.iv.next115, %wide.trip.count117
  br i1 %exitcond118.not, label %.loopexit, label %.lr.ph94, !llvm.loop !138

.lr.ph:                                           ; preds = %.lr.ph.preheader, %.lr.ph
  %indvars.iv = phi i64 [ 0, %.lr.ph.preheader ], [ %indvars.iv.next, %.lr.ph ]
  %55 = getelementptr inbounds nuw i32, ptr %1, i64 %indvars.iv
  %56 = load i32, ptr %55, align 4, !tbaa !3
  %57 = and i32 %56, 65535
  %58 = getelementptr inbounds nuw i32, ptr %2, i64 %indvars.iv
  %59 = load i32, ptr %58, align 4, !tbaa !3
  %60 = and i32 %59, -65536
  %61 = or disjoint i32 %60, %57
  %62 = xor i32 %61, 65535
  %63 = getelementptr inbounds nuw i32, ptr %0, i64 %indvars.iv
  store i32 %62, ptr %63, align 4, !tbaa !3
  %indvars.iv.next = add nuw nsw i64 %indvars.iv, 1
  %exitcond.not = icmp eq i64 %indvars.iv.next, %wide.trip.count
  br i1 %exitcond.not, label %.loopexit, label %.lr.ph, !llvm.loop !139

64:                                               ; preds = %13
  %65 = add nsw i32 %4, -5
  %66 = shl nuw i32 1, %65
  %67 = icmp sgt i32 %10, 0
  br i1 %67, label %.preheader.lr.ph, label %.loopexit

.preheader.lr.ph:                                 ; preds = %64
  %.not = icmp eq i32 %65, 31
  %68 = shl i32 2, %65
  %69 = sext i32 %68 to i64
  br i1 %.not, label %.loopexit, label %.preheader.us.preheader

.preheader.us.preheader:                          ; preds = %.preheader.lr.ph
  %70 = sext i32 %66 to i64
  %smax = tail call i32 @llvm.smax.i32(i32 %66, i32 1)
  %wide.trip.count137 = zext nneg i32 %smax to i64
  br label %.preheader.us

.preheader.us:                                    ; preds = %.preheader.us.preheader, %._crit_edge.us
  %.0106.us = phi ptr [ %80, %._crit_edge.us ], [ %0, %.preheader.us.preheader ]
  %.076105.us = phi i32 [ %83, %._crit_edge.us ], [ 0, %.preheader.us.preheader ]
  %.078104.us = phi ptr [ %81, %._crit_edge.us ], [ %1, %.preheader.us.preheader ]
  %.079103.us = phi ptr [ %82, %._crit_edge.us ], [ %2, %.preheader.us.preheader ]
  br label %71

71:                                               ; preds = %.preheader.us, %71
  %indvars.iv134 = phi i64 [ 0, %.preheader.us ], [ %indvars.iv.next135, %71 ]
  %72 = getelementptr inbounds nuw i32, ptr %.078104.us, i64 %indvars.iv134
  %73 = load i32, ptr %72, align 4, !tbaa !3
  %74 = xor i32 %73, -1
  %75 = getelementptr inbounds nuw i32, ptr %.0106.us, i64 %indvars.iv134
  store i32 %74, ptr %75, align 4, !tbaa !3
  %76 = add nuw nsw i64 %indvars.iv134, %70
  %77 = getelementptr inbounds i32, ptr %.079103.us, i64 %76
  %78 = load i32, ptr %77, align 4, !tbaa !3
  %79 = getelementptr inbounds i32, ptr %.0106.us, i64 %76
  store i32 %78, ptr %79, align 4, !tbaa !3
  %indvars.iv.next135 = add nuw nsw i64 %indvars.iv134, 1
  %exitcond138.not = icmp eq i64 %indvars.iv.next135, %wide.trip.count137
  br i1 %exitcond138.not, label %._crit_edge.us, label %71, !llvm.loop !140

._crit_edge.us:                                   ; preds = %71
  %80 = getelementptr inbounds i32, ptr %.0106.us, i64 %69
  %81 = getelementptr inbounds i32, ptr %.078104.us, i64 %69
  %82 = getelementptr inbounds i32, ptr %.079103.us, i64 %69
  %83 = add nsw i32 %.076105.us, %68
  %84 = icmp slt i32 %83, %10
  br i1 %84, label %.preheader.us, label %.loopexit, !llvm.loop !141

.loopexit:                                        ; preds = %.lr.ph, %.lr.ph94, %.lr.ph96, %.lr.ph98, %.lr.ph100, %._crit_edge.us, %.preheader.lr.ph, %.preheader90, %.preheader88, %.preheader86, %.preheader84, %.preheader82, %64, %12
  ret void
}